
fw.elf:     file format elf32-littleriscv


Disassembly of section .text:

30000000 <_start>:
30000000:	01000117          	auipc	sp,0x1000
30000004:	00010113          	mv	sp,sp
30000008:	00001297          	auipc	t0,0x1
3000000c:	98428293          	addi	t0,t0,-1660 # 3000098c <OUT>
30000010:	00001317          	auipc	t1,0x1
30000014:	acc30313          	addi	t1,t1,-1332 # 30000adc <__bss_end>
30000018:	00628663          	beq	t0,t1,30000024 <_start+0x24>
3000001c:	0002a023          	sw	zero,0(t0)
30000020:	0291                	addi	t0,t0,4
30000022:	bfdd                	j	30000018 <_start+0x18>
30000024:	010000ef          	jal	30000034 <main>
30000028:	a001                	j	30000028 <_start+0x28>

3000002a <putc>:
3000002a:	820027b7          	lui	a5,0x82002
3000002e:	00a78023          	sb	a0,0(a5) # 82002000 <__stack_top+0x51002000>
30000032:	8082                	ret

30000034 <main>:
30000034:	1141                	addi	sp,sp,-16 # 30fffff0 <__bss_end+0xfff514>
30000036:	300007b7          	lui	a5,0x30000
3000003a:	c606                	sw	ra,12(sp)
3000003c:	74078793          	addi	a5,a5,1856 # 30000740 <_mlir_ciface_offload_tile+0xac>
30000040:	820026b7          	lui	a3,0x82002
30000044:	0007c703          	lbu	a4,0(a5)
30000048:	ef11                	bnez	a4,30000064 <main+0x30>
3000004a:	2085                	jal	300000aa <run_sa16_linearity_test>
3000004c:	300007b7          	lui	a5,0x30000
30000050:	76078793          	addi	a5,a5,1888 # 30000760 <_mlir_ciface_offload_tile+0xcc>
30000054:	820026b7          	lui	a3,0x82002
30000058:	0007c703          	lbu	a4,0(a5)
3000005c:	eb01                	bnez	a4,3000006c <main+0x38>
3000005e:	10500073          	wfi
30000062:	bff5                	j	3000005e <main+0x2a>
30000064:	0785                	addi	a5,a5,1
30000066:	00e68023          	sb	a4,0(a3) # 82002000 <__stack_top+0x51002000>
3000006a:	bfe9                	j	30000044 <main+0x10>
3000006c:	0785                	addi	a5,a5,1
3000006e:	00e68023          	sb	a4,0(a3)
30000072:	b7dd                	j	30000058 <main+0x24>

30000074 <puts__>:
30000074:	1141                	addi	sp,sp,-16
30000076:	c422                	sw	s0,8(sp)
30000078:	c606                	sw	ra,12(sp)
3000007a:	842a                	mv	s0,a0
3000007c:	00044503          	lbu	a0,0(s0)
30000080:	e509                	bnez	a0,3000008a <puts__+0x16>
30000082:	40b2                	lw	ra,12(sp)
30000084:	4422                	lw	s0,8(sp)
30000086:	0141                	addi	sp,sp,16
30000088:	8082                	ret
3000008a:	0405                	addi	s0,s0,1
3000008c:	3f79                	jal	3000002a <putc>
3000008e:	b7fd                	j	3000007c <puts__+0x8>

30000090 <dump_to.constprop.0>:
30000090:	4781                	li	a5,0
30000092:	10000713          	li	a4,256
30000096:	00f58633          	add	a2,a1,a5
3000009a:	4210                	lw	a2,0(a2)
3000009c:	00f506b3          	add	a3,a0,a5
300000a0:	0791                	addi	a5,a5,4
300000a2:	c290                	sw	a2,0(a3)
300000a4:	fee799e3          	bne	a5,a4,30000096 <dump_to.constprop.0+0x6>
300000a8:	8082                	ret

300000aa <run_sa16_linearity_test>:
300000aa:	30001537          	lui	a0,0x30001
300000ae:	92010113          	addi	sp,sp,-1760
300000b2:	83c50513          	addi	a0,a0,-1988 # 3000083c <_mlir_ciface_offload_tile+0x1a8>
300000b6:	6c112e23          	sw	ra,1756(sp)
300000ba:	6c812c23          	sw	s0,1752(sp)
300000be:	6c912a23          	sw	s1,1748(sp)
300000c2:	6d212823          	sw	s2,1744(sp)
300000c6:	6d312623          	sw	s3,1740(sp)
300000ca:	376d                	jal	30000074 <puts__>
300000cc:	4781                	li	a5,0
300000ce:	4741                	li	a4,16
300000d0:	00f106b3          	add	a3,sp,a5
300000d4:	00068023          	sb	zero,0(a3)
300000d8:	0785                	addi	a5,a5,1
300000da:	fee79be3          	bne	a5,a4,300000d0 <run_sa16_linearity_test+0x26>
300000de:	4781                	li	a5,0
300000e0:	4741                	li	a4,16
300000e2:	0814                	addi	a3,sp,16
300000e4:	96be                	add	a3,a3,a5
300000e6:	02078613          	addi	a2,a5,32
300000ea:	00c68023          	sb	a2,0(a3)
300000ee:	0785                	addi	a5,a5,1
300000f0:	fee799e3          	bne	a5,a4,300000e2 <run_sa16_linearity_test+0x38>
300000f4:	4781                	li	a5,0
300000f6:	46c1                	li	a3,16
300000f8:	1018                	addi	a4,sp,32
300000fa:	00f70633          	add	a2,a4,a5
300000fe:	0818                	addi	a4,sp,16
30000100:	973e                	add	a4,a4,a5
30000102:	00074703          	lbu	a4,0(a4)
30000106:	0785                	addi	a5,a5,1
30000108:	0706                	slli	a4,a4,0x1
3000010a:	00e60023          	sb	a4,0(a2)
3000010e:	fed795e3          	bne	a5,a3,300000f8 <run_sa16_linearity_test+0x4e>
30000112:	4781                	li	a5,0
30000114:	46c1                	li	a3,16
30000116:	1818                	addi	a4,sp,48
30000118:	00f70633          	add	a2,a4,a5
3000011c:	0818                	addi	a4,sp,16
3000011e:	973e                	add	a4,a4,a5
30000120:	00074703          	lbu	a4,0(a4)
30000124:	0785                	addi	a5,a5,1
30000126:	0706                	slli	a4,a4,0x1
30000128:	00e60023          	sb	a4,0(a2)
3000012c:	fed795e3          	bne	a5,a3,30000116 <run_sa16_linearity_test+0x6c>
30000130:	4781                	li	a5,0
30000132:	04000713          	li	a4,64
30000136:	0314                	addi	a3,sp,384
30000138:	96be                	add	a3,a3,a5
3000013a:	00f68023          	sb	a5,0(a3)
3000013e:	0785                	addi	a5,a5,1
30000140:	fee79be3          	bne	a5,a4,30000136 <run_sa16_linearity_test+0x8c>
30000144:	031c                	addi	a5,sp,384
30000146:	01010813          	addi	a6,sp,16
3000014a:	4705                	li	a4,1
3000014c:	4481                	li	s1,0
3000014e:	4681                	li	a3,0
30000150:	4401                	li	s0,0
30000152:	04000613          	li	a2,64
30000156:	4541                	li	a0,16
30000158:	4581                	li	a1,0
3000015a:	c0be                	sw	a5,64(sp)
3000015c:	c2be                	sw	a5,68(sp)
3000015e:	c142                	sw	a6,128(sp)
30000160:	4781                	li	a5,0
30000162:	c342                	sw	a6,132(sp)
30000164:	02010813          	addi	a6,sp,32
30000168:	cab6                	sw	a3,84(sp)
3000016a:	cebe                	sw	a5,92(sp)
3000016c:	debe                	sw	a5,124(sp)
3000016e:	cf3e                	sw	a5,156(sp)
30000170:	df3e                	sw	a5,188(sp)
30000172:	ccba                	sw	a4,88(sp)
30000174:	dcba                	sw	a4,120(sp)
30000176:	cd3a                	sw	a4,152(sp)
30000178:	dd3a                	sw	a4,184(sp)
3000017a:	c4a2                	sw	s0,72(sp)
3000017c:	c8b2                	sw	a2,80(sp)
3000017e:	d4a2                	sw	s0,104(sp)
30000180:	d8aa                	sw	a0,112(sp)
30000182:	daae                	sw	a1,116(sp)
30000184:	c522                	sw	s0,136(sp)
30000186:	c92a                	sw	a0,144(sp)
30000188:	cb2e                	sw	a1,148(sp)
3000018a:	d142                	sw	a6,160(sp)
3000018c:	d342                	sw	a6,164(sp)
3000018e:	d522                	sw	s0,168(sp)
30000190:	03010813          	addi	a6,sp,48
30000194:	d92a                	sw	a0,176(sp)
30000196:	db2e                	sw	a1,180(sp)
30000198:	c6a6                	sw	s1,76(sp)
3000019a:	d08a                	sw	sp,96(sp)
3000019c:	d28a                	sw	sp,100(sp)
3000019e:	d6a6                	sw	s1,108(sp)
300001a0:	c726                	sw	s1,140(sp)
300001a2:	d726                	sw	s1,172(sp)
300001a4:	c1c2                	sw	a6,192(sp)
300001a6:	c5a2                	sw	s0,200(sp)
300001a8:	c9aa                	sw	a0,208(sp)
300001aa:	d5a2                	sw	s0,232(sp)
300001ac:	8522                	mv	a0,s0
300001ae:	0580                	addi	s0,sp,704
300001b0:	10812023          	sw	s0,256(sp)
300001b4:	10812223          	sw	s0,260(sp)
300001b8:	0780                	addi	s0,sp,960
300001ba:	cbae                	sw	a1,212(sp)
300001bc:	12812023          	sw	s0,288(sp)
300001c0:	038c                	addi	a1,sp,448
300001c2:	12812223          	sw	s0,292(sp)
300001c6:	4c010413          	addi	s0,sp,1216
300001ca:	cfbe                	sw	a5,220(sp)
300001cc:	dbb6                	sw	a3,244(sp)
300001ce:	dfbe                	sw	a5,252(sp)
300001d0:	10d12a23          	sw	a3,276(sp)
300001d4:	10f12e23          	sw	a5,284(sp)
300001d8:	12d12a23          	sw	a3,308(sp)
300001dc:	12f12e23          	sw	a5,316(sp)
300001e0:	c3c2                	sw	a6,196(sp)
300001e2:	cdba                	sw	a4,216(sp)
300001e4:	ddba                	sw	a4,248(sp)
300001e6:	10e12c23          	sw	a4,280(sp)
300001ea:	12e12c23          	sw	a4,312(sp)
300001ee:	d1ae                	sw	a1,224(sp)
300001f0:	d3ae                	sw	a1,228(sp)
300001f2:	d9b2                	sw	a2,240(sp)
300001f4:	10a12423          	sw	a0,264(sp)
300001f8:	10c12823          	sw	a2,272(sp)
300001fc:	12a12423          	sw	a0,296(sp)
30000200:	12c12823          	sw	a2,304(sp)
30000204:	14812023          	sw	s0,320(sp)
30000208:	c7a6                	sw	s1,204(sp)
3000020a:	d7a6                	sw	s1,236(sp)
3000020c:	10912623          	sw	s1,268(sp)
30000210:	12912623          	sw	s1,300(sp)
30000214:	14812223          	sw	s0,324(sp)
30000218:	008c                	addi	a1,sp,64
3000021a:	14a12423          	sw	a0,328(sp)
3000021e:	14c12823          	sw	a2,336(sp)
30000222:	5c010413          	addi	s0,sp,1472
30000226:	16a12423          	sw	a0,360(sp)
3000022a:	16c12823          	sw	a2,368(sp)
3000022e:	0108                	addi	a0,sp,128
30000230:	1190                	addi	a2,sp,224
30000232:	14d12a23          	sw	a3,340(sp)
30000236:	14f12e23          	sw	a5,348(sp)
3000023a:	16d12a23          	sw	a3,372(sp)
3000023e:	16f12e23          	sw	a5,380(sp)
30000242:	14e12c23          	sw	a4,344(sp)
30000246:	16e12c23          	sw	a4,376(sp)
3000024a:	14912623          	sw	s1,332(sp)
3000024e:	16812023          	sw	s0,352(sp)
30000252:	16812223          	sw	s0,356(sp)
30000256:	16912623          	sw	s1,364(sp)
3000025a:	292d                	jal	30000694 <_mlir_ciface_offload_tile>
3000025c:	0210                	addi	a2,sp,256
3000025e:	008c                	addi	a1,sp,64
30000260:	0108                	addi	a0,sp,128
30000262:	290d                	jal	30000694 <_mlir_ciface_offload_tile>
30000264:	4781                	li	a5,0
30000266:	10000693          	li	a3,256
3000026a:	0398                	addi	a4,sp,448
3000026c:	973e                	add	a4,a4,a5
3000026e:	4310                	lw	a2,0(a4)
30000270:	0598                	addi	a4,sp,704
30000272:	973e                	add	a4,a4,a5
30000274:	4318                	lw	a4,0(a4)
30000276:	10e61063          	bne	a2,a4,30000376 <run_sa16_linearity_test+0x2cc>
3000027a:	0791                	addi	a5,a5,4
3000027c:	fed797e3          	bne	a5,a3,3000026a <run_sa16_linearity_test+0x1c0>
30000280:	4405                	li	s0,1
30000282:	038c                	addi	a1,sp,448
30000284:	30010537          	lui	a0,0x30010
30000288:	3521                	jal	30000090 <dump_to.constprop.0>
3000028a:	058c                	addi	a1,sp,704
3000028c:	30020537          	lui	a0,0x30020
30000290:	3501                	jal	30000090 <dump_to.constprop.0>
30000292:	0e040463          	beqz	s0,3000037a <run_sa16_linearity_test+0x2d0>
30000296:	30000537          	lui	a0,0x30000
3000029a:	77c50513          	addi	a0,a0,1916 # 3000077c <_mlir_ciface_offload_tile+0xe8>
3000029e:	3bd9                	jal	30000074 <puts__>
300002a0:	1210                	addi	a2,sp,288
300002a2:	008c                	addi	a1,sp,64
300002a4:	1108                	addi	a0,sp,160
300002a6:	26fd                	jal	30000694 <_mlir_ciface_offload_tile>
300002a8:	4781                	li	a5,0
300002aa:	10000613          	li	a2,256
300002ae:	0398                	addi	a4,sp,448
300002b0:	973e                	add	a4,a4,a5
300002b2:	0794                	addi	a3,sp,960
300002b4:	4318                	lw	a4,0(a4)
300002b6:	96be                	add	a3,a3,a5
300002b8:	4294                	lw	a3,0(a3)
300002ba:	0706                	slli	a4,a4,0x1
300002bc:	0ce69463          	bne	a3,a4,30000384 <run_sa16_linearity_test+0x2da>
300002c0:	0791                	addi	a5,a5,4
300002c2:	fec796e3          	bne	a5,a2,300002ae <run_sa16_linearity_test+0x204>
300002c6:	4485                	li	s1,1
300002c8:	078c                	addi	a1,sp,960
300002ca:	30030537          	lui	a0,0x30030
300002ce:	33c9                	jal	30000090 <dump_to.constprop.0>
300002d0:	ccc5                	beqz	s1,30000388 <run_sa16_linearity_test+0x2de>
300002d2:	30000537          	lui	a0,0x30000
300002d6:	7ac50513          	addi	a0,a0,1964 # 300007ac <_mlir_ciface_offload_tile+0x118>
300002da:	3b69                	jal	30000074 <puts__>
300002dc:	0290                	addi	a2,sp,320
300002de:	008c                	addi	a1,sp,64
300002e0:	0188                	addi	a0,sp,192
300002e2:	2e4d                	jal	30000694 <_mlir_ciface_offload_tile>
300002e4:	4781                	li	a5,0
300002e6:	10000613          	li	a2,256
300002ea:	0398                	addi	a4,sp,448
300002ec:	973e                	add	a4,a4,a5
300002ee:	4c010693          	addi	a3,sp,1216
300002f2:	4318                	lw	a4,0(a4)
300002f4:	96be                	add	a3,a3,a5
300002f6:	4294                	lw	a3,0(a3)
300002f8:	0706                	slli	a4,a4,0x1
300002fa:	08e69c63          	bne	a3,a4,30000392 <run_sa16_linearity_test+0x2e8>
300002fe:	0791                	addi	a5,a5,4
30000300:	fec795e3          	bne	a5,a2,300002ea <run_sa16_linearity_test+0x240>
30000304:	4985                	li	s3,1
30000306:	4c010593          	addi	a1,sp,1216
3000030a:	30040537          	lui	a0,0x30040
3000030e:	3349                	jal	30000090 <dump_to.constprop.0>
30000310:	08098363          	beqz	s3,30000396 <run_sa16_linearity_test+0x2ec>
30000314:	30000537          	lui	a0,0x30000
30000318:	7dc50513          	addi	a0,a0,2012 # 300007dc <_mlir_ciface_offload_tile+0x148>
3000031c:	3ba1                	jal	30000074 <puts__>
3000031e:	1290                	addi	a2,sp,352
30000320:	008c                	addi	a1,sp,64
30000322:	1088                	addi	a0,sp,96
30000324:	2e85                	jal	30000694 <_mlir_ciface_offload_tile>
30000326:	5c010793          	addi	a5,sp,1472
3000032a:	4398                	lw	a4,0(a5)
3000032c:	eb35                	bnez	a4,300003a0 <run_sa16_linearity_test+0x2f6>
3000032e:	0791                	addi	a5,a5,4
30000330:	6c010713          	addi	a4,sp,1728
30000334:	fef71be3          	bne	a4,a5,3000032a <run_sa16_linearity_test+0x280>
30000338:	30001537          	lui	a0,0x30001
3000033c:	4905                	li	s2,1
3000033e:	80c50513          	addi	a0,a0,-2036 # 3000080c <_mlir_ciface_offload_tile+0x178>
30000342:	3b0d                	jal	30000074 <puts__>
30000344:	c425                	beqz	s0,300003ac <run_sa16_linearity_test+0x302>
30000346:	c0bd                	beqz	s1,300003ac <run_sa16_linearity_test+0x302>
30000348:	06098263          	beqz	s3,300003ac <run_sa16_linearity_test+0x302>
3000034c:	06090063          	beqz	s2,300003ac <run_sa16_linearity_test+0x302>
30000350:	30001537          	lui	a0,0x30001
30000354:	86850513          	addi	a0,a0,-1944 # 30000868 <_mlir_ciface_offload_tile+0x1d4>
30000358:	3b31                	jal	30000074 <puts__>
3000035a:	6dc12083          	lw	ra,1756(sp)
3000035e:	6d812403          	lw	s0,1752(sp)
30000362:	6d412483          	lw	s1,1748(sp)
30000366:	6cc12983          	lw	s3,1740(sp)
3000036a:	854a                	mv	a0,s2
3000036c:	6d012903          	lw	s2,1744(sp)
30000370:	6e010113          	addi	sp,sp,1760
30000374:	8082                	ret
30000376:	4401                	li	s0,0
30000378:	b729                	j	30000282 <run_sa16_linearity_test+0x1d8>
3000037a:	30000537          	lui	a0,0x30000
3000037e:	79450513          	addi	a0,a0,1940 # 30000794 <_mlir_ciface_offload_tile+0x100>
30000382:	bf31                	j	3000029e <run_sa16_linearity_test+0x1f4>
30000384:	4481                	li	s1,0
30000386:	b789                	j	300002c8 <run_sa16_linearity_test+0x21e>
30000388:	30000537          	lui	a0,0x30000
3000038c:	7c450513          	addi	a0,a0,1988 # 300007c4 <_mlir_ciface_offload_tile+0x130>
30000390:	b7a9                	j	300002da <run_sa16_linearity_test+0x230>
30000392:	4981                	li	s3,0
30000394:	bf8d                	j	30000306 <run_sa16_linearity_test+0x25c>
30000396:	30000537          	lui	a0,0x30000
3000039a:	7f450513          	addi	a0,a0,2036 # 300007f4 <_mlir_ciface_offload_tile+0x160>
3000039e:	bfbd                	j	3000031c <run_sa16_linearity_test+0x272>
300003a0:	30001537          	lui	a0,0x30001
300003a4:	4901                	li	s2,0
300003a6:	82450513          	addi	a0,a0,-2012 # 30000824 <_mlir_ciface_offload_tile+0x190>
300003aa:	bf61                	j	30000342 <run_sa16_linearity_test+0x298>
300003ac:	30001537          	lui	a0,0x30001
300003b0:	89050513          	addi	a0,a0,-1904 # 30000890 <_mlir_ciface_offload_tile+0x1fc>
300003b4:	31c1                	jal	30000074 <puts__>
300003b6:	4901                	li	s2,0
300003b8:	b74d                	j	3000035a <run_sa16_linearity_test+0x2b0>

300003ba <memset>:
300003ba:	962a                	add	a2,a2,a0
300003bc:	87aa                	mv	a5,a0
300003be:	00c79363          	bne	a5,a2,300003c4 <memset+0xa>
300003c2:	8082                	ret
300003c4:	0785                	addi	a5,a5,1
300003c6:	feb78fa3          	sb	a1,-1(a5)
300003ca:	bfd5                	j	300003be <memset+0x4>

300003cc <_mlir_ciface_sa16_load_B>:
300003cc:	4701                	li	a4,0
300003ce:	4681                	li	a3,0
300003d0:	80000837          	lui	a6,0x80000
300003d4:	4341                	li	t1,16
300003d6:	10000e13          	li	t3,256
300003da:	4781                	li	a5,0
300003dc:	00d508b3          	add	a7,a0,a3
300003e0:	01070633          	add	a2,a4,a6
300003e4:	00f88eb3          	add	t4,a7,a5
300003e8:	000ecf03          	lbu	t5,0(t4)
300003ec:	00f60eb3          	add	t4,a2,a5
300003f0:	0785                	addi	a5,a5,1
300003f2:	01ee8023          	sb	t5,0(t4)
300003f6:	fe6797e3          	bne	a5,t1,300003e4 <_mlir_ciface_sa16_load_B+0x18>
300003fa:	0741                	addi	a4,a4,16
300003fc:	96ae                	add	a3,a3,a1
300003fe:	fdc71ee3          	bne	a4,t3,300003da <_mlir_ciface_sa16_load_B+0xe>
30000402:	8082                	ret

30000404 <_mlir_ciface_sa16_run_tile>:
30000404:	800006b7          	lui	a3,0x80000
30000408:	4701                	li	a4,0
3000040a:	4801                	li	a6,0
3000040c:	10068693          	addi	a3,a3,256 # 80000100 <__stack_top+0x4f000100>
30000410:	4e41                	li	t3,16
30000412:	10000e93          	li	t4,256
30000416:	4781                	li	a5,0
30000418:	01050333          	add	t1,a0,a6
3000041c:	00d708b3          	add	a7,a4,a3
30000420:	00f30f33          	add	t5,t1,a5
30000424:	000f4f83          	lbu	t6,0(t5)
30000428:	00f88f33          	add	t5,a7,a5
3000042c:	0785                	addi	a5,a5,1
3000042e:	01ff0023          	sb	t6,0(t5)
30000432:	ffc797e3          	bne	a5,t3,30000420 <_mlir_ciface_sa16_run_tile+0x1c>
30000436:	0741                	addi	a4,a4,16
30000438:	982e                	add	a6,a6,a1
3000043a:	fdd71ee3          	bne	a4,t4,30000416 <_mlir_ciface_sa16_run_tile+0x12>
3000043e:	001e87b7          	lui	a5,0x1e8
30000442:	80001737          	lui	a4,0x80001
30000446:	48178793          	addi	a5,a5,1153 # 1e8481 <_start-0x2fe17b7f>
3000044a:	0711                	addi	a4,a4,4 # 80001004 <__stack_top+0x4f001004>
3000044c:	17fd                	addi	a5,a5,-1
3000044e:	c399                	beqz	a5,30000454 <_mlir_ciface_sa16_run_tile+0x50>
30000450:	4314                	lw	a3,0(a4)
30000452:	deed                	beqz	a3,3000044c <_mlir_ciface_sa16_run_tile+0x48>
30000454:	80001737          	lui	a4,0x80001
30000458:	800017b7          	lui	a5,0x80001
3000045c:	7ffff537          	lui	a0,0x7ffff
30000460:	40070713          	addi	a4,a4,1024 # 80001400 <__stack_top+0x4f001400>
30000464:	438c                	lw	a1,0(a5)
30000466:	00a786b3          	add	a3,a5,a0
3000046a:	96b2                	add	a3,a3,a2
3000046c:	c28c                	sw	a1,0(a3)
3000046e:	0791                	addi	a5,a5,4 # 80001004 <__stack_top+0x4f001004>
30000470:	fee79ae3          	bne	a5,a4,30000464 <_mlir_ciface_sa16_run_tile+0x60>
30000474:	8082                	ret

30000476 <run_gemm>:
30000476:	7159                	addi	sp,sp,-112
30000478:	d4a2                	sw	s0,104(sp)
3000047a:	d2a6                	sw	s1,100(sp)
3000047c:	d0ca                	sw	s2,96(sp)
3000047e:	cece                	sw	s3,92(sp)
30000480:	ccd2                	sw	s4,88(sp)
30000482:	c8da                	sw	s6,80(sp)
30000484:	c2e6                	sw	s9,68(sp)
30000486:	843e                	mv	s0,a5
30000488:	d686                	sw	ra,108(sp)
3000048a:	cad6                	sw	s5,84(sp)
3000048c:	c6de                	sw	s7,76(sp)
3000048e:	c4e2                	sw	s8,72(sp)
30000490:	c0ea                	sw	s10,64(sp)
30000492:	de6e                	sw	s11,60(sp)
30000494:	00479b13          	slli	s6,a5,0x4
30000498:	81010113          	addi	sp,sp,-2032
3000049c:	00471793          	slli	a5,a4,0x4
300004a0:	c43e                	sw	a5,8(sp)
300004a2:	00241793          	slli	a5,s0,0x2
300004a6:	c62a                	sw	a0,12(sp)
300004a8:	c82e                	sw	a1,16(sp)
300004aa:	ca32                	sw	a2,20(sp)
300004ac:	cc36                	sw	a3,24(sp)
300004ae:	84ba                	mv	s1,a4
300004b0:	c23e                	sw	a5,4(sp)
300004b2:	4a01                	li	s4,0
300004b4:	4981                	li	s3,0
300004b6:	4901                	li	s2,0
300004b8:	40000c93          	li	s9,1024
300004bc:	47e2                	lw	a5,24(sp)
300004be:	0af94e63          	blt	s2,a5,3000057a <run_gemm+0x104>
300004c2:	7f010113          	addi	sp,sp,2032
300004c6:	50b6                	lw	ra,108(sp)
300004c8:	5426                	lw	s0,104(sp)
300004ca:	5496                	lw	s1,100(sp)
300004cc:	5906                	lw	s2,96(sp)
300004ce:	49f6                	lw	s3,92(sp)
300004d0:	4a66                	lw	s4,88(sp)
300004d2:	4ad6                	lw	s5,84(sp)
300004d4:	4b46                	lw	s6,80(sp)
300004d6:	4bb6                	lw	s7,76(sp)
300004d8:	4c26                	lw	s8,72(sp)
300004da:	4c96                	lw	s9,68(sp)
300004dc:	4d06                	lw	s10,64(sp)
300004de:	5df2                	lw	s11,60(sp)
300004e0:	6165                	addi	sp,sp,112
300004e2:	8082                	ret
300004e4:	40000613          	li	a2,1024
300004e8:	4581                	li	a1,0
300004ea:	1008                	addi	a0,sp,32
300004ec:	35f9                	jal	300003ba <memset>
300004ee:	47c2                	lw	a5,16(sp)
300004f0:	4c01                	li	s8,0
300004f2:	01578eb3          	add	t4,a5,s5
300004f6:	049c4663          	blt	s8,s1,30000542 <run_gemm+0xcc>
300004fa:	47d2                	lw	a5,20(sp)
300004fc:	002b9713          	slli	a4,s7,0x2
30000500:	100c                	addi	a1,sp,32
30000502:	973e                	add	a4,a4,a5
30000504:	4601                	li	a2,0
30000506:	10000513          	li	a0,256
3000050a:	4781                	li	a5,0
3000050c:	00f58f33          	add	t5,a1,a5
30000510:	000f2f03          	lw	t5,0(t5)
30000514:	00f70eb3          	add	t4,a4,a5
30000518:	0791                	addi	a5,a5,4
3000051a:	01eea023          	sw	t5,0(t4)
3000051e:	ffb797e3          	bne	a5,s11,3000050c <run_gemm+0x96>
30000522:	4792                	lw	a5,4(sp)
30000524:	0641                	addi	a2,a2,16
30000526:	04058593          	addi	a1,a1,64
3000052a:	973e                	add	a4,a4,a5
3000052c:	fca61fe3          	bne	a2,a0,3000050a <run_gemm+0x94>
30000530:	0ac1                	addi	s5,s5,16
30000532:	0bc1                	addi	s7,s7,16
30000534:	fa8ac8e3          	blt	s5,s0,300004e4 <run_gemm+0x6e>
30000538:	47a2                	lw	a5,8(sp)
3000053a:	0941                	addi	s2,s2,16
3000053c:	99da                	add	s3,s3,s6
3000053e:	9a3e                	add	s4,s4,a5
30000540:	bfb5                	j	300004bc <run_gemm+0x46>
30000542:	8576                	mv	a0,t4
30000544:	85a2                	mv	a1,s0
30000546:	ce76                	sw	t4,28(sp)
30000548:	3551                	jal	300003cc <_mlir_ciface_sa16_load_B>
3000054a:	42010613          	addi	a2,sp,1056
3000054e:	85a6                	mv	a1,s1
30000550:	018d0533          	add	a0,s10,s8
30000554:	3d45                	jal	30000404 <_mlir_ciface_sa16_run_tile>
30000556:	4ef2                	lw	t4,28(sp)
30000558:	1010                	addi	a2,sp,32
3000055a:	4701                	li	a4,0
3000055c:	42010793          	addi	a5,sp,1056
30000560:	00e78533          	add	a0,a5,a4
30000564:	420c                	lw	a1,0(a2)
30000566:	4108                	lw	a0,0(a0)
30000568:	0711                	addi	a4,a4,4
3000056a:	95aa                	add	a1,a1,a0
3000056c:	c20c                	sw	a1,0(a2)
3000056e:	0611                	addi	a2,a2,4
30000570:	ff9716e3          	bne	a4,s9,3000055c <run_gemm+0xe6>
30000574:	0c41                	addi	s8,s8,16
30000576:	9eda                	add	t4,t4,s6
30000578:	bfbd                	j	300004f6 <run_gemm+0x80>
3000057a:	47b2                	lw	a5,12(sp)
3000057c:	8bce                	mv	s7,s3
3000057e:	4a81                	li	s5,0
30000580:	01478d33          	add	s10,a5,s4
30000584:	04000d93          	li	s11,64
30000588:	b775                	j	30000534 <run_gemm+0xbe>
3000058a:	7179                	addi	sp,sp,-48
3000058c:	d606                	sw	ra,44(sp)
3000058e:	cc3a                	sw	a4,24(sp)
30000590:	ce3e                	sw	a5,28(sp)
30000592:	d042                	sw	a6,32(sp)
30000594:	d246                	sw	a7,36(sp)
30000596:	c42a                	sw	a0,8(sp)
30000598:	c62e                	sw	a1,12(sp)
3000059a:	c832                	sw	a2,16(sp)
3000059c:	ca36                	sw	a3,20(sp)
3000059e:	0028                	addi	a0,sp,8
300005a0:	00000097          	auipc	ra,0x0
300005a4:	e2c080e7          	jalr	-468(ra) # 300003cc <_mlir_ciface_sa16_load_B>
300005a8:	50b2                	lw	ra,44(sp)
300005aa:	6145                	addi	sp,sp,48
300005ac:	8082                	ret
300005ae:	715d                	addi	sp,sp,-80
300005b0:	c686                	sw	ra,76(sp)
300005b2:	c4a2                	sw	s0,72(sp)
300005b4:	42d6                	lw	t0,84(sp)
300005b6:	4346                	lw	t1,80(sp)
300005b8:	53a6                	lw	t2,104(sp)
300005ba:	5e36                	lw	t3,108(sp)
300005bc:	5e86                	lw	t4,96(sp)
300005be:	5f16                	lw	t5,100(sp)
300005c0:	4fe6                	lw	t6,88(sp)
300005c2:	4476                	lw	s0,92(sp)
300005c4:	dc3a                	sw	a4,56(sp)
300005c6:	de3e                	sw	a5,60(sp)
300005c8:	c0c2                	sw	a6,64(sp)
300005ca:	c2c6                	sw	a7,68(sp)
300005cc:	d42a                	sw	a0,40(sp)
300005ce:	d62e                	sw	a1,44(sp)
300005d0:	d832                	sw	a2,48(sp)
300005d2:	da36                	sw	a3,52(sp)
300005d4:	c41a                	sw	t1,8(sp)
300005d6:	c616                	sw	t0,12(sp)
300005d8:	c87e                	sw	t6,16(sp)
300005da:	ca22                	sw	s0,20(sp)
300005dc:	cc76                	sw	t4,24(sp)
300005de:	ce7a                	sw	t5,28(sp)
300005e0:	d01e                	sw	t2,32(sp)
300005e2:	d272                	sw	t3,36(sp)
300005e4:	1028                	addi	a0,sp,40
300005e6:	002c                	addi	a1,sp,8
300005e8:	00000097          	auipc	ra,0x0
300005ec:	e1c080e7          	jalr	-484(ra) # 30000404 <_mlir_ciface_sa16_run_tile>
300005f0:	40b6                	lw	ra,76(sp)
300005f2:	4426                	lw	s0,72(sp)
300005f4:	6161                	addi	sp,sp,80
300005f6:	8082                	ret

300005f8 <offload_tile>:
300005f8:	7159                	addi	sp,sp,-112
300005fa:	d686                	sw	ra,108(sp)
300005fc:	d4a2                	sw	s0,104(sp)
300005fe:	d2a6                	sw	s1,100(sp)
30000600:	d0ca                	sw	s2,96(sp)
30000602:	cece                	sw	s3,92(sp)
30000604:	ccd2                	sw	s4,88(sp)
30000606:	cad6                	sw	s5,84(sp)
30000608:	c8da                	sw	s6,80(sp)
3000060a:	c6de                	sw	s7,76(sp)
3000060c:	c4e2                	sw	s8,72(sp)
3000060e:	c2e6                	sw	s9,68(sp)
30000610:	c0ea                	sw	s10,64(sp)
30000612:	de6e                	sw	s11,60(sp)
30000614:	dc46                	sw	a7,56(sp)
30000616:	da42                	sw	a6,52(sp)
30000618:	d83e                	sw	a5,48(sp)
3000061a:	d63a                	sw	a4,44(sp)
3000061c:	d436                	sw	a3,40(sp)
3000061e:	8bb2                	mv	s7,a2
30000620:	8c2e                	mv	s8,a1
30000622:	4cca                	lw	s9,144(sp)
30000624:	4d5a                	lw	s10,148(sp)
30000626:	4dea                	lw	s11,152(sp)
30000628:	497a                	lw	s2,156(sp)
3000062a:	598a                	lw	s3,160(sp)
3000062c:	5a1a                	lw	s4,164(sp)
3000062e:	5aaa                	lw	s5,168(sp)
30000630:	5b3a                	lw	s6,172(sp)
30000632:	54c6                	lw	s1,112(sp)
30000634:	55d6                	lw	a1,116(sp)
30000636:	5666                	lw	a2,120(sp)
30000638:	56f6                	lw	a3,124(sp)
3000063a:	470a                	lw	a4,128(sp)
3000063c:	479a                	lw	a5,132(sp)
3000063e:	482a                	lw	a6,136(sp)
30000640:	48ba                	lw	a7,140(sp)
30000642:	842a                	mv	s0,a0
30000644:	8526                	mv	a0,s1
30000646:	00000097          	auipc	ra,0x0
3000064a:	f44080e7          	jalr	-188(ra) # 3000058a <run_gemm+0x114>
3000064e:	c84e                	sw	s3,16(sp)
30000650:	ca52                	sw	s4,20(sp)
30000652:	cc56                	sw	s5,24(sp)
30000654:	ce5a                	sw	s6,28(sp)
30000656:	c066                	sw	s9,0(sp)
30000658:	c26a                	sw	s10,4(sp)
3000065a:	c46e                	sw	s11,8(sp)
3000065c:	c64a                	sw	s2,12(sp)
3000065e:	8522                	mv	a0,s0
30000660:	85e2                	mv	a1,s8
30000662:	865e                	mv	a2,s7
30000664:	56a2                	lw	a3,40(sp)
30000666:	5732                	lw	a4,44(sp)
30000668:	57c2                	lw	a5,48(sp)
3000066a:	5852                	lw	a6,52(sp)
3000066c:	58e2                	lw	a7,56(sp)
3000066e:	00000097          	auipc	ra,0x0
30000672:	f40080e7          	jalr	-192(ra) # 300005ae <run_gemm+0x138>
30000676:	50b6                	lw	ra,108(sp)
30000678:	5426                	lw	s0,104(sp)
3000067a:	5496                	lw	s1,100(sp)
3000067c:	5906                	lw	s2,96(sp)
3000067e:	49f6                	lw	s3,92(sp)
30000680:	4a66                	lw	s4,88(sp)
30000682:	4ad6                	lw	s5,84(sp)
30000684:	4b46                	lw	s6,80(sp)
30000686:	4bb6                	lw	s7,76(sp)
30000688:	4c26                	lw	s8,72(sp)
3000068a:	4c96                	lw	s9,68(sp)
3000068c:	4d06                	lw	s10,64(sp)
3000068e:	5df2                	lw	s11,60(sp)
30000690:	6165                	addi	sp,sp,112
30000692:	8082                	ret

30000694 <_mlir_ciface_offload_tile>:
30000694:	7159                	addi	sp,sp,-112
30000696:	d686                	sw	ra,108(sp)
30000698:	d4a2                	sw	s0,104(sp)
3000069a:	d2a6                	sw	s1,100(sp)
3000069c:	d0ca                	sw	s2,96(sp)
3000069e:	cece                	sw	s3,92(sp)
300006a0:	ccd2                	sw	s4,88(sp)
300006a2:	cad6                	sw	s5,84(sp)
300006a4:	c8da                	sw	s6,80(sp)
300006a6:	c6de                	sw	s7,76(sp)
300006a8:	c4e2                	sw	s8,72(sp)
300006aa:	4918                	lw	a4,16(a0)
300006ac:	495c                	lw	a5,20(a0)
300006ae:	01852803          	lw	a6,24(a0) # 7ffff018 <__stack_top+0x4efff018>
300006b2:	01c52883          	lw	a7,28(a0)
300006b6:	00052383          	lw	t2,0(a0)
300006ba:	00452283          	lw	t0,4(a0)
300006be:	00852303          	lw	t1,8(a0)
300006c2:	4554                	lw	a3,12(a0)
300006c4:	0005af83          	lw	t6,0(a1)
300006c8:	0045ae03          	lw	t3,4(a1)
300006cc:	0085ae83          	lw	t4,8(a1)
300006d0:	00c5af03          	lw	t5,12(a1)
300006d4:	0105a903          	lw	s2,16(a1)
300006d8:	0145aa03          	lw	s4,20(a1)
300006dc:	0185aa83          	lw	s5,24(a1)
300006e0:	01c5a983          	lw	s3,28(a1)
300006e4:	00062b03          	lw	s6,0(a2)
300006e8:	00462b83          	lw	s7,4(a2)
300006ec:	00862c03          	lw	s8,8(a2)
300006f0:	4644                	lw	s1,12(a2)
300006f2:	4a08                	lw	a0,16(a2)
300006f4:	4a4c                	lw	a1,20(a2)
300006f6:	4e00                	lw	s0,24(a2)
300006f8:	4e50                	lw	a2,28(a2)
300006fa:	d82a                	sw	a0,48(sp)
300006fc:	da2e                	sw	a1,52(sp)
300006fe:	dc22                	sw	s0,56(sp)
30000700:	de32                	sw	a2,60(sp)
30000702:	d05a                	sw	s6,32(sp)
30000704:	d25e                	sw	s7,36(sp)
30000706:	d462                	sw	s8,40(sp)
30000708:	d626                	sw	s1,44(sp)
3000070a:	c84a                	sw	s2,16(sp)
3000070c:	ca52                	sw	s4,20(sp)
3000070e:	cc56                	sw	s5,24(sp)
30000710:	ce4e                	sw	s3,28(sp)
30000712:	c07e                	sw	t6,0(sp)
30000714:	c272                	sw	t3,4(sp)
30000716:	c476                	sw	t4,8(sp)
30000718:	c67a                	sw	t5,12(sp)
3000071a:	851e                	mv	a0,t2
3000071c:	8596                	mv	a1,t0
3000071e:	861a                	mv	a2,t1
30000720:	00000097          	auipc	ra,0x0
30000724:	ed8080e7          	jalr	-296(ra) # 300005f8 <offload_tile>
30000728:	50b6                	lw	ra,108(sp)
3000072a:	5426                	lw	s0,104(sp)
3000072c:	5496                	lw	s1,100(sp)
3000072e:	5906                	lw	s2,96(sp)
30000730:	49f6                	lw	s3,92(sp)
30000732:	4a66                	lw	s4,88(sp)
30000734:	4ad6                	lw	s5,84(sp)
30000736:	4b46                	lw	s6,80(sp)
30000738:	4bb6                	lw	s7,76(sp)
3000073a:	4c26                	lw	s8,72(sp)
3000073c:	6165                	addi	sp,sp,112
3000073e:	8082                	ret
30000740:	5d57465b          	.insn	4, 0x5d57465b
30000744:	5320                	lw	s0,96(a4)
30000746:	6174                	.insn	2, 0x6174
30000748:	7472                	.insn	2, 0x7472
3000074a:	6e69                	lui	t3,0x1a
3000074c:	70612067          	.insn	4, 0x70612067
30000750:	6c70                	.insn	2, 0x6c70
30000752:	6369                	lui	t1,0x1a
30000754:	7461                	lui	s0,0xffff8
30000756:	6f69                	lui	t5,0x1a
30000758:	2e6e                	.insn	2, 0x2e6e
3000075a:	2e2e                	.insn	2, 0x2e2e
3000075c:	000a                	c.slli	zero,0x2
3000075e:	0000                	unimp
30000760:	5d57465b          	.insn	4, 0x5d57465b
30000764:	4120                	lw	s0,64(a0)
30000766:	6c6c                	.insn	2, 0x6c6c
30000768:	7420                	.insn	2, 0x7420
3000076a:	7361                	lui	t1,0xffff8
3000076c:	6620736b          	.insn	4, 0x6620736b
30000770:	6e69                	lui	t3,0x1a
30000772:	7369                	lui	t1,0xffffa
30000774:	6568                	.insn	2, 0x6568
30000776:	2e64                	.insn	2, 0x2e64
30000778:	000a                	c.slli	zero,0x2
3000077a:	0000                	unimp
3000077c:	5d54535b          	.insn	4, 0x5d54535b
30000780:	4420                	lw	s0,72(s0)
30000782:	7465                	lui	s0,0xffff9
30000784:	7265                	lui	tp,0xffff9
30000786:	696d                	lui	s2,0x1b
30000788:	696e                	.insn	2, 0x696e
3000078a:	203a6d73          	csrrsi	s10,0x203,20
3000078e:	4150                	lw	a2,4(a0)
30000790:	000a5353          	.insn	4, 0x000a5353
30000794:	5d54535b          	.insn	4, 0x5d54535b
30000798:	4420                	lw	s0,72(s0)
3000079a:	7465                	lui	s0,0xffff9
3000079c:	7265                	lui	tp,0xffff9
3000079e:	696d                	lui	s2,0x1b
300007a0:	696e                	.insn	2, 0x696e
300007a2:	203a6d73          	csrrsi	s10,0x203,20
300007a6:	4146                	lw	sp,80(sp)
300007a8:	4c49                	li	s8,18
300007aa:	000a                	c.slli	zero,0x2
300007ac:	5d54535b          	.insn	4, 0x5d54535b
300007b0:	5320                	lw	s0,96(a4)
300007b2:	696c6163          	bltu	s8,s6,30000e34 <__bss_end+0x358>
300007b6:	676e                	.insn	2, 0x676e
300007b8:	203a                	.insn	2, 0x203a
300007ba:	2020                	.insn	2, 0x2020
300007bc:	2020                	.insn	2, 0x2020
300007be:	4150                	lw	a2,4(a0)
300007c0:	000a5353          	.insn	4, 0x000a5353
300007c4:	5d54535b          	.insn	4, 0x5d54535b
300007c8:	5320                	lw	s0,96(a4)
300007ca:	696c6163          	bltu	s8,s6,30000e4c <__bss_end+0x370>
300007ce:	676e                	.insn	2, 0x676e
300007d0:	203a                	.insn	2, 0x203a
300007d2:	2020                	.insn	2, 0x2020
300007d4:	2020                	.insn	2, 0x2020
300007d6:	4146                	lw	sp,80(sp)
300007d8:	4c49                	li	s8,18
300007da:	000a                	c.slli	zero,0x2
300007dc:	5d54535b          	.insn	4, 0x5d54535b
300007e0:	4120                	lw	s0,64(a0)
300007e2:	6464                	.insn	2, 0x6464
300007e4:	7469                	lui	s0,0xffffa
300007e6:	7669                	lui	a2,0xffffa
300007e8:	7469                	lui	s0,0xffffa
300007ea:	3a79                	jal	30000188 <run_sa16_linearity_test+0xde>
300007ec:	2020                	.insn	2, 0x2020
300007ee:	4150                	lw	a2,4(a0)
300007f0:	000a5353          	.insn	4, 0x000a5353
300007f4:	5d54535b          	.insn	4, 0x5d54535b
300007f8:	4120                	lw	s0,64(a0)
300007fa:	6464                	.insn	2, 0x6464
300007fc:	7469                	lui	s0,0xffffa
300007fe:	7669                	lui	a2,0xffffa
30000800:	7469                	lui	s0,0xffffa
30000802:	3a79                	jal	300001a0 <run_sa16_linearity_test+0xf6>
30000804:	2020                	.insn	2, 0x2020
30000806:	4146                	lw	sp,80(sp)
30000808:	4c49                	li	s8,18
3000080a:	000a                	c.slli	zero,0x2
3000080c:	5d54535b          	.insn	4, 0x5d54535b
30000810:	5a20                	lw	s0,112(a2)
30000812:	7265                	lui	tp,0xffff9
30000814:	6e692d6f          	jal	s10,30092efa <__bss_end+0x9241e>
30000818:	7570                	.insn	2, 0x7570
3000081a:	3a74                	.insn	2, 0x3a74
3000081c:	2020                	.insn	2, 0x2020
3000081e:	4150                	lw	a2,4(a0)
30000820:	000a5353          	.insn	4, 0x000a5353
30000824:	5d54535b          	.insn	4, 0x5d54535b
30000828:	5a20                	lw	s0,112(a2)
3000082a:	7265                	lui	tp,0xffff9
3000082c:	6e692d6f          	jal	s10,30092f12 <__bss_end+0x92436>
30000830:	7570                	.insn	2, 0x7570
30000832:	3a74                	.insn	2, 0x3a74
30000834:	2020                	.insn	2, 0x2020
30000836:	4146                	lw	sp,80(sp)
30000838:	4c49                	li	s8,18
3000083a:	000a                	c.slli	zero,0x2
3000083c:	5d54535b          	.insn	4, 0x5d54535b
30000840:	5320                	lw	s0,96(a4)
30000842:	6174                	.insn	2, 0x6174
30000844:	7472                	.insn	2, 0x7472
30000846:	6e69                	lui	t3,0x1a
30000848:	41532067          	.insn	4, 0x41532067
3000084c:	3631                	jal	30000358 <run_sa16_linearity_test+0x2ae>
3000084e:	6c20                	.insn	2, 0x6c20
30000850:	6e69                	lui	t3,0x1a
30000852:	6165                	addi	sp,sp,112
30000854:	6972                	.insn	2, 0x6972
30000856:	7974                	.insn	2, 0x7974
30000858:	7420                	.insn	2, 0x7420
3000085a:	7365                	lui	t1,0xffff9
3000085c:	2074                	.insn	2, 0x2074
3000085e:	74697573          	csrrci	a0,0x746,18
30000862:	2e65                	jal	30000c1a <__bss_end+0x13e>
30000864:	2e2e                	.insn	2, 0x2e2e
30000866:	000a                	c.slli	zero,0x2
30000868:	5d54535b          	.insn	4, 0x5d54535b
3000086c:	4f20                	lw	s0,88(a4)
3000086e:	41203a4b          	.insn	4, 0x41203a4b
30000872:	6c6c                	.insn	2, 0x6c6c
30000874:	6c20                	.insn	2, 0x6c20
30000876:	6e69                	lui	t3,0x1a
30000878:	6165                	addi	sp,sp,112
3000087a:	6972                	.insn	2, 0x6972
3000087c:	7974                	.insn	2, 0x7974
3000087e:	7420                	.insn	2, 0x7420
30000880:	7365                	lui	t1,0xffff9
30000882:	7374                	.insn	2, 0x7374
30000884:	7020                	.insn	2, 0x7020
30000886:	7361                	lui	t1,0xffff8
30000888:	2e646573          	csrrsi	a0,0x2e6,8
3000088c:	000a                	c.slli	zero,0x2
3000088e:	0000                	unimp
30000890:	5d54535b          	.insn	4, 0x5d54535b
30000894:	4e20                	lw	s0,88(a2)
30000896:	4f203a47          	.insn	4, 0x4f203a47
3000089a:	656e                	.insn	2, 0x656e
3000089c:	6f20                	.insn	2, 0x6f20
3000089e:	2072                	.insn	2, 0x2072
300008a0:	6f6d                	lui	t5,0x1b
300008a2:	6572                	.insn	2, 0x6572
300008a4:	6c20                	.insn	2, 0x6c20
300008a6:	6e69                	lui	t3,0x1a
300008a8:	6165                	addi	sp,sp,112
300008aa:	6972                	.insn	2, 0x6972
300008ac:	7974                	.insn	2, 0x7974
300008ae:	7420                	.insn	2, 0x7420
300008b0:	7365                	lui	t1,0xffff9
300008b2:	7374                	.insn	2, 0x7374
300008b4:	6620                	.insn	2, 0x6620
300008b6:	6961                	lui	s2,0x18
300008b8:	656c                	.insn	2, 0x656c
300008ba:	2e64                	.insn	2, 0x2e64
300008bc:	000a                	c.slli	zero,0x2
